; Function Attrs: mustprogress uwtable
define dso_local void @_ZNK4pbrt4Disk6BoundsEv(ptr dead_on_unwind noalias writable sret(%"class.pbrt::Bounds3") align 4 %0, ptr noundef nonnull readonly align 8 captures(none) dereferenceable(36) %1) local_unnamed_addr #2 align 2 {
  %3 = alloca %"class.pbrt::Bounds3", align 8
  %4 = load ptr, ptr %1, align 8, !tbaa !60
  call void @llvm.lifetime.start.p0(i64 24, ptr nonnull %3) #31
  %5 = getelementptr inbounds nuw i8, ptr %1, i64 24
  %6 = load float, ptr %5, align 8, !tbaa !62
  %7 = fneg float %6
  %8 = getelementptr inbounds nuw i8, ptr %1, i64 20
  %9 = load float, ptr %8, align 4, !tbaa !63
  %10 = fcmp olt float %6, 0.000000e+00
  %11 = select i1 %10, float %6, float %7
  %.sroa.015.0.vec.insert.i.i = insertelement <2 x float> poison, float %11, i64 0
  %.sroa.015.4.vec.insert.i.i = shufflevector <2 x float> %.sroa.015.0.vec.insert.i.i, <2 x float> poison, <2 x i32> zeroinitializer
  store <2 x float> %.sroa.015.4.vec.insert.i.i, ptr %3, align 8
  %.sroa.212.0..sroa_idx.i = getelementptr inbounds nuw i8, ptr %3, i64 8
  store float %9, ptr %.sroa.212.0..sroa_idx.i, align 8
  %12 = getelementptr inbounds nuw i8, ptr %3, i64 12
  %13 = fcmp ogt float %6, 0.000000e+00
  %14 = select i1 %13, float %6, float %7
  %.sroa.015.0.vec.insert.i35.i = insertelement <2 x float> poison, float %14, i64 0
  %.sroa.015.4.vec.insert.i36.i = shufflevector <2 x float> %.sroa.015.0.vec.insert.i35.i, <2 x float> poison, <2 x i32> zeroinitializer
  store <2 x float> %.sroa.015.4.vec.insert.i36.i, ptr %12, align 4
  %.sroa.2.0..sroa_idx.i = getelementptr inbounds nuw i8, ptr %3, i64 20
  store float %9, ptr %.sroa.2.0..sroa_idx.i, align 4
  call void @_ZNK4pbrt9TransformclERKNS_7Bounds3IfEE(ptr dead_on_unwind writable sret(%"class.pbrt::Bounds3") align 4 %0, ptr noundef nonnull align 4 dereferenceable(128) %4, ptr noundef nonnull align 4 dereferenceable(24) %3)
  call void @llvm.lifetime.end.p0(i64 24, ptr nonnull %3) #31
  ret void
}